target datalayout = "e-m:e-p270:32:32-p271:32:32-p272:64:64-i64:64-i128:128-f80:128-n8:16:32:64-S128"
target triple = "x86_64-pc-linux-gnu"

%struct.H5VL_optional_args_t = type { i32, ptr }
%union.H5VL_native_attr_optional_args_t = type { %struct.H5VL_native_attr_iterate_old_t }
%struct.H5VL_native_attr_iterate_old_t = type { i64, ptr, ptr, ptr }

@H5_libinit_g = external global i8, align 1
@H5_libterm_g = external global i8, align 1
@.str = private unnamed_addr constant [103 x i8] c"generated/home/dtcxzyw/WorkSpace/Projects/compilers/llvm-opt-benchmark/bench/hdf5/hdf5/src/H5Adeprec.c\00", align 1
@H5E_FUNC_g = external global i64, align 8
@H5E_CANTINIT_g = external global i64, align 8
@.str.1 = private unnamed_addr constant [30 x i8] c"library initialization failed\00", align 1
@H5E_CANTSET_g = external global i64, align 8
@.str.2 = private unnamed_addr constant [22 x i8] c"can't set API context\00", align 1
@H5E_ARGS_g = external global i64, align 8
@H5E_BADTYPE_g = external global i64, align 8
@.str.3 = private unnamed_addr constant [39 x i8] c"location is not valid for an attribute\00", align 1
@H5E_ATTR_g = external global i64, align 8
@.str.6 = private unnamed_addr constant [28 x i8] c"invalid location identifier\00", align 1
@H5P_LST_DATASET_XFER_ID_g = external global i64, align 8
@__func__.H5Aiterate1 = private unnamed_addr constant [12 x i8] c"H5Aiterate1\00", align 1
@H5E_BADITER_g = external global i64, align 8
@.str.14 = private unnamed_addr constant [32 x i8] c"error iterating over attributes\00", align 1

; Function Attrs: nounwind uwtable
define i32 @H5Aiterate1(i64 noundef %0, ptr noundef %1, ptr noundef %2, ptr noundef %3) #0 {
  %5 = alloca i64, align 8
  %6 = alloca ptr, align 8
  %7 = alloca ptr, align 8
  %8 = alloca ptr, align 8
  %9 = alloca ptr, align 8
  %10 = alloca %struct.H5VL_optional_args_t, align 8
  %11 = alloca %union.H5VL_native_attr_optional_args_t, align 8
  %12 = alloca i32, align 4
  %13 = alloca i8, align 1
  %14 = alloca i8, align 1
  store i64 %0, ptr %5, align 8
  store ptr %1, ptr %6, align 8
  store ptr %2, ptr %7, align 8
  store ptr %3, ptr %8, align 8
  store ptr null, ptr %9, align 8
  store i8 0, ptr %13, align 1
  store i8 0, ptr %14, align 1
  %15 = load i8, ptr @H5_libinit_g, align 1
  %16 = trunc i8 %15 to i1
  br i1 %16, label %21, label %17

17:                                               ; preds = %4
  %18 = load i8, ptr @H5_libterm_g, align 1
  %19 = trunc i8 %18 to i1
  %20 = xor i1 %19, true
  br label %21

21:                                               ; preds = %17, %4
  %22 = phi i1 [ false, %4 ], [ %20, %17 ]
  %23 = xor i1 %22, true
  %24 = xor i1 %23, true
  %25 = zext i1 %24 to i32
  %26 = sext i32 %25 to i64
  %27 = icmp ne i64 %26, 0
  br i1 %27, label %28, label %52

28:                                               ; preds = %21
  %29 = call i32 @H5_init_library()
  %30 = icmp slt i32 %29, 0
  %31 = xor i1 %30, true
  %32 = xor i1 %31, true
  %33 = zext i1 %32 to i32
  %34 = sext i32 %33 to i64
  %35 = icmp ne i64 %34, 0
  br i1 %35, label %36, label %51

36:                                               ; preds = %28
  br label %37

37:                                               ; preds = %36
  br label %38

38:                                               ; preds = %37
  br label %39

39:                                               ; preds = %38
  %40 = load i64, ptr @H5E_FUNC_g, align 8
  %41 = load i64, ptr @H5E_CANTINIT_g, align 8
  %42 = call i32 (ptr, ptr, i32, i64, i64, ptr, ...) @H5E_printf_stack(ptr noundef @.str, ptr noundef @__func__.H5Aiterate1, i32 noundef 380, i64 noundef %40, i64 noundef %41, ptr noundef @.str.1)
  br label %43

43:                                               ; preds = %39
  store i8 1, ptr %14, align 1
  %44 = load i8, ptr %14, align 1
  %45 = trunc i8 %44 to i1
  %46 = zext i1 %45 to i8
  store i8 %46, ptr %14, align 1
  br label %47

47:                                               ; preds = %43
  br label %48

48:                                               ; preds = %47
  store i32 -1, ptr %12, align 4
  br label %137

49:                                               ; No predecessors!
  br label %50

50:                                               ; preds = %49
  br label %51

51:                                               ; preds = %50, %28
  br label %52

52:                                               ; preds = %51, %21
  %53 = call i32 @H5CX_push()
  %54 = icmp slt i32 %53, 0
  %55 = xor i1 %54, true
  %56 = xor i1 %55, true
  %57 = zext i1 %56 to i32
  %58 = sext i32 %57 to i64
  %59 = icmp ne i64 %58, 0
  br i1 %59, label %60, label %75

60:                                               ; preds = %52
  br label %61

61:                                               ; preds = %60
  br label %62

62:                                               ; preds = %61
  br label %63

63:                                               ; preds = %62
  %64 = load i64, ptr @H5E_FUNC_g, align 8
  %65 = load i64, ptr @H5E_CANTSET_g, align 8
  %66 = call i32 (ptr, ptr, i32, i64, i64, ptr, ...) @H5E_printf_stack(ptr noundef @.str, ptr noundef @__func__.H5Aiterate1, i32 noundef 380, i64 noundef %64, i64 noundef %65, ptr noundef @.str.2)
  br label %67

67:                                               ; preds = %63
  store i8 1, ptr %14, align 1
  %68 = load i8, ptr %14, align 1
  %69 = trunc i8 %68 to i1
  %70 = zext i1 %69 to i8
  store i8 %70, ptr %14, align 1
  br label %71

71:                                               ; preds = %67
  br label %72

72:                                               ; preds = %71
  store i32 -1, ptr %12, align 4
  br label %137

73:                                               ; No predecessors!
  br label %74

74:                                               ; preds = %73
  br label %76

75:                                               ; preds = %52
  store i8 1, ptr %13, align 1
  br label %76

76:                                               ; preds = %75, %74
  %77 = call i32 @H5E_clear_stack()
  %78 = load i64, ptr %5, align 8
  %79 = call i32 @H5I_get_type(i64 noundef %78)
  %80 = icmp eq i32 7, %79
  br i1 %80, label %81, label %96

81:                                               ; preds = %76
  br label %82

82:                                               ; preds = %81
  br label %83

83:                                               ; preds = %82
  br label %84

84:                                               ; preds = %83
  %85 = load i64, ptr @H5E_ARGS_g, align 8
  %86 = load i64, ptr @H5E_BADTYPE_g, align 8
  %87 = call i32 (ptr, ptr, i32, i64, i64, ptr, ...) @H5E_printf_stack(ptr noundef @.str, ptr noundef @__func__.H5Aiterate1, i32 noundef 384, i64 noundef %85, i64 noundef %86, ptr noundef @.str.3)
  br label %88

88:                                               ; preds = %84
  store i8 1, ptr %14, align 1
  %89 = load i8, ptr %14, align 1
  %90 = trunc i8 %89 to i1
  %91 = zext i1 %90 to i8
  store i8 %91, ptr %14, align 1
  br label %92

92:                                               ; preds = %88
  br label %93

93:                                               ; preds = %92
  store i32 -1, ptr %12, align 4
  br label %137

94:                                               ; No predecessors!
  br label %95

95:                                               ; preds = %94
  br label %96

96:                                               ; preds = %95, %76
  %97 = load i64, ptr %5, align 8
  %98 = call ptr @H5VL_vol_object(i64 noundef %97)
  store ptr %98, ptr %9, align 8
  %99 = icmp eq ptr null, %98
  br i1 %99, label %100, label %115

100:                                              ; preds = %96
  br label %101

101:                                              ; preds = %100
  br label %102

102:                                              ; preds = %101
  br label %103

103:                                              ; preds = %102
  %104 = load i64, ptr @H5E_ATTR_g, align 8
  %105 = load i64, ptr @H5E_BADTYPE_g, align 8
  %106 = call i32 (ptr, ptr, i32, i64, i64, ptr, ...) @H5E_printf_stack(ptr noundef @.str, ptr noundef @__func__.H5Aiterate1, i32 noundef 388, i64 noundef %104, i64 noundef %105, ptr noundef @.str.6)
  br label %107

107:                                              ; preds = %103
  store i8 1, ptr %14, align 1
  %108 = load i8, ptr %14, align 1
  %109 = trunc i8 %108 to i1
  %110 = zext i1 %109 to i8
  store i8 %110, ptr %14, align 1
  br label %111

111:                                              ; preds = %107
  br label %112

112:                                              ; preds = %111
  store i32 -1, ptr %12, align 4
  br label %137

113:                                              ; No predecessors!
  br label %114

114:                                              ; preds = %113
  br label %115

115:                                              ; preds = %114, %96
  %116 = load i64, ptr %5, align 8
  %117 = getelementptr inbounds %struct.H5VL_native_attr_iterate_old_t, ptr %11, i32 0, i32 0
  store i64 %116, ptr %117, align 8
  %118 = load ptr, ptr %6, align 8
  %119 = getelementptr inbounds %struct.H5VL_native_attr_iterate_old_t, ptr %11, i32 0, i32 1
  store ptr %118, ptr %119, align 8
  %120 = load ptr, ptr %7, align 8
  %121 = getelementptr inbounds %struct.H5VL_native_attr_iterate_old_t, ptr %11, i32 0, i32 2
  store ptr %120, ptr %121, align 8
  %122 = load ptr, ptr %8, align 8
  %123 = getelementptr inbounds %struct.H5VL_native_attr_iterate_old_t, ptr %11, i32 0, i32 3
  store ptr %122, ptr %123, align 8
  %124 = getelementptr inbounds %struct.H5VL_optional_args_t, ptr %10, i32 0, i32 0
  store i32 0, ptr %124, align 8
  %125 = getelementptr inbounds %struct.H5VL_optional_args_t, ptr %10, i32 0, i32 1
  store ptr %11, ptr %125, align 8
  %126 = load ptr, ptr %9, align 8
  %127 = load i64, ptr @H5P_LST_DATASET_XFER_ID_g, align 8
  %128 = call i32 @H5VL_attr_optional(ptr noundef %126, ptr noundef %10, i64 noundef %127, ptr noundef null)
  store i32 %128, ptr %12, align 4
  %129 = icmp slt i32 %128, 0
  br i1 %129, label %130, label %136

130:                                              ; preds = %115
  br label %131

131:                                              ; preds = %130
  %132 = load i64, ptr @H5E_ATTR_g, align 8
  %133 = load i64, ptr @H5E_BADITER_g, align 8
  %134 = call i32 (ptr, ptr, i32, i64, i64, ptr, ...) @H5E_printf_stack(ptr noundef @.str, ptr noundef @__func__.H5Aiterate1, i32 noundef 401, i64 noundef %132, i64 noundef %133, ptr noundef @.str.14)
  br label %135

135:                                              ; preds = %131
  br label %136

136:                                              ; preds = %135, %115
  br label %137

137:                                              ; preds = %136, %112, %93, %72, %48
  %138 = load i8, ptr %13, align 1
  %139 = trunc i8 %138 to i1
  %140 = xor i1 %139, true
  %141 = xor i1 %140, true
  %142 = zext i1 %141 to i32
  %143 = sext i32 %142 to i64
  %144 = icmp ne i64 %143, 0
  br i1 %144, label %145, label %147

145:                                              ; preds = %137
  %146 = call i32 @H5CX_pop(i1 noundef zeroext true)
  store i8 0, ptr %13, align 1
  br label %147

147:                                              ; preds = %145, %137
  %148 = load i8, ptr %14, align 1
  %149 = trunc i8 %148 to i1
  %150 = xor i1 %149, true
  %151 = xor i1 %150, true
  %152 = zext i1 %151 to i32
  %153 = sext i32 %152 to i64
  %154 = icmp ne i64 %153, 0
  br i1 %154, label %155, label %157

155:                                              ; preds = %147
  %156 = call i32 @H5E_dump_api_stack()
  br label %157

157:                                              ; preds = %155, %147
  %158 = load i32, ptr %12, align 4
  ret i32 %158
}