; Function Attrs: nounwind uwtable
define i32 @H5Aiterate1(i64 noundef %0, ptr noundef %1, ptr noundef %2, ptr noundef %3) local_unnamed_addr #0 {
  %5 = alloca %struct.H5VL_optional_args_t, align 8
  %6 = alloca %union.H5VL_native_attr_optional_args_t, align 8
  %7 = load i8, ptr @H5_libinit_g, align 1
  %8 = trunc i8 %7 to i1
  %9 = load i8, ptr @H5_libterm_g, align 1
  %10 = trunc i8 %9 to i1
  %11 = select i1 %8, i1 true, i1 %10
  br i1 %11, label %19, label %12

12:                                               ; preds = %4
  %13 = tail call i32 @H5_init_library() #2
  %14 = icmp slt i32 %13, 0
  br i1 %14, label %15, label %19

15:                                               ; preds = %12
  %16 = load i64, ptr @H5E_FUNC_g, align 8
  %17 = load i64, ptr @H5E_CANTINIT_g, align 8
  %18 = tail call i32 (ptr, ptr, i32, i64, i64, ptr, ...) @H5E_printf_stack(ptr noundef nonnull @.str, ptr noundef nonnull @__func__.H5Aiterate1, i32 noundef 380, i64 noundef %16, i64 noundef %17, ptr noundef nonnull @.str.1) #2
  br label %.thread25

19:                                               ; preds = %12, %4
  %20 = tail call i32 @H5CX_push() #2
  %21 = icmp slt i32 %20, 0
  br i1 %21, label %22, label %26

22:                                               ; preds = %19
  %23 = load i64, ptr @H5E_FUNC_g, align 8
  %24 = load i64, ptr @H5E_CANTSET_g, align 8
  %25 = tail call i32 (ptr, ptr, i32, i64, i64, ptr, ...) @H5E_printf_stack(ptr noundef nonnull @.str, ptr noundef nonnull @__func__.H5Aiterate1, i32 noundef 380, i64 noundef %23, i64 noundef %24, ptr noundef nonnull @.str.2) #2
  br label %.thread25

26:                                               ; preds = %19
  %27 = tail call i32 @H5E_clear_stack() #2
  %28 = tail call i32 @H5I_get_type(i64 noundef %0) #2
  %29 = icmp eq i32 %28, 7
  br i1 %29, label %30, label %34

30:                                               ; preds = %26
  %31 = load i64, ptr @H5E_ARGS_g, align 8
  %32 = load i64, ptr @H5E_BADTYPE_g, align 8
  %33 = tail call i32 (ptr, ptr, i32, i64, i64, ptr, ...) @H5E_printf_stack(ptr noundef nonnull @.str, ptr noundef nonnull @__func__.H5Aiterate1, i32 noundef 384, i64 noundef %31, i64 noundef %32, ptr noundef nonnull @.str.3) #2
  br label %.thread31

34:                                               ; preds = %26
  %35 = tail call ptr @H5VL_vol_object(i64 noundef %0) #2
  %36 = icmp eq ptr %35, null
  br i1 %36, label %37, label %41

37:                                               ; preds = %34
  %38 = load i64, ptr @H5E_ATTR_g, align 8
  %39 = load i64, ptr @H5E_BADTYPE_g, align 8
  %40 = tail call i32 (ptr, ptr, i32, i64, i64, ptr, ...) @H5E_printf_stack(ptr noundef nonnull @.str, ptr noundef nonnull @__func__.H5Aiterate1, i32 noundef 388, i64 noundef %38, i64 noundef %39, ptr noundef nonnull @.str.6) #2
  br label %.thread31

41:                                               ; preds = %34
  store i64 %0, ptr %6, align 8
  %42 = getelementptr inbounds i8, ptr %6, i64 8
  store ptr %1, ptr %42, align 8
  %43 = getelementptr inbounds i8, ptr %6, i64 16
  store ptr %2, ptr %43, align 8
  %44 = getelementptr inbounds i8, ptr %6, i64 24
  store ptr %3, ptr %44, align 8
  store i32 0, ptr %5, align 8
  %45 = getelementptr inbounds i8, ptr %5, i64 8
  store ptr %6, ptr %45, align 8
  %46 = load i64, ptr @H5P_LST_DATASET_XFER_ID_g, align 8
  %47 = call i32 @H5VL_attr_optional(ptr noundef nonnull %35, ptr noundef nonnull %5, i64 noundef %46, ptr noundef null) #2
  %48 = icmp slt i32 %47, 0
  br i1 %48, label %49, label %54

49:                                               ; preds = %41
  %50 = load i64, ptr @H5E_ATTR_g, align 8
  %51 = load i64, ptr @H5E_BADITER_g, align 8
  %52 = call i32 (ptr, ptr, i32, i64, i64, ptr, ...) @H5E_printf_stack(ptr noundef nonnull @.str, ptr noundef nonnull @__func__.H5Aiterate1, i32 noundef 401, i64 noundef %50, i64 noundef %51, ptr noundef nonnull @.str.14) #2
  br label %54

.thread31:                                        ; preds = %37, %30
  %53 = tail call i32 @H5CX_pop(i1 noundef zeroext true) #2
  br label %.thread25

54:                                               ; preds = %41, %49
  %55 = call i32 @H5CX_pop(i1 noundef zeroext true) #2
  br label %57

.thread25:                                        ; preds = %22, %15, %.thread31
  %56 = tail call i32 @H5E_dump_api_stack() #2
  br label %57

57:                                               ; preds = %54, %.thread25
  %.0142028 = phi i32 [ -1, %.thread25 ], [ %47, %54 ]
  ret i32 %.0142028
}